target datalayout = "e-m:e-p270:32:32-p271:32:32-p272:64:64-i64:64-i128:128-f80:128-n8:16:32:64-S128"
target triple = "x86_64-pc-linux-gnu"

%struct.WOLFSSL_BUFFER_INFO = type { ptr, i32 }
%struct.WOLFSSL = type <{ ptr, ptr, ptr, ptr, [48 x i8], [48 x i8], ptr, ptr, ptr, ptr, ptr, ptr, ptr, ptr, ptr, ptr, ptr, ptr, ptr, i32, [4 x i8], %struct.WOLFSSL_CIPHER, ptr, %struct.Ciphers, %struct.Ciphers, [8 x i8], %struct.Buffers, ptr, ptr, %struct.WOLFSSL_ALERT_HISTORY, %struct.WOLFSSL_ALERT, i32, i32, i32, i32, i32, i32, i32, i16, [2 x i8], i32, i8, %struct.RecordLayerHeader, %struct.MsgsReceived, %struct.ProtocolVersion, %struct.ProtocolVersion, %struct.CipherSpecs, [2 x i8], %struct.Keys, %struct.Options, ptr, i8, i8, i16, [10 x i16], i8, i8, i16, i16, [38 x i8], i32, i32, [4 x i8], ptr, i8, i8, [6 x i8], ptr, ptr, i16, i8, i8, i32, i8, [3 x i8], i32, %struct.OneTimeAuth, ptr }>
%struct.WOLFSSL_CIPHER = type { i8, i8, ptr }
%struct.Ciphers = type { ptr, ptr, ptr, ptr, i8, i8 }
%struct.Buffers = type { %struct.bufferStatic, %struct.bufferStatic, %struct.WOLFSSL_BUFFER_INFO, %struct.WOLFSSL_BUFFER_INFO, %struct.WOLFSSL_BUFFER_INFO, %struct.WOLFSSL_BUFFER_INFO, i32, i32, i8, i8, i8, i8, %struct.WOLFSSL_BUFFER_INFO, %struct.WOLFSSL_BUFFER_INFO, %struct.WOLFSSL_BUFFER_INFO, %struct.WOLFSSL_BUFFER_INFO, ptr, ptr, ptr, i8, i8, i32, i32, ptr, i32, [1 x ptr] }
%struct.bufferStatic = type { [5 x i8], ptr, i32, i32, i32, i8, i8 }
%struct.WOLFSSL_ALERT_HISTORY = type { %struct.WOLFSSL_ALERT, %struct.WOLFSSL_ALERT }
%struct.WOLFSSL_ALERT = type { i32, i32 }
%struct.RecordLayerHeader = type { i8, i8, i8, [2 x i8] }
%struct.MsgsReceived = type { i32 }
%struct.ProtocolVersion = type { i8, i8 }
%struct.CipherSpecs = type { i16, i16, i16, i16, i8, i8, i8, i8, i8, i8, i8, i8 }
%struct.Keys = type { [64 x i8], [64 x i8], [32 x i8], [32 x i8], [16 x i8], [16 x i8], [8 x i8], [12 x i8], [12 x i8], i32, i32, i32, i32, i32, i32, i8, i8, i8, i8 }
%struct.Options = type { i64, i64, i8, i8, i8, i8, i8, i8, i8, i8, i8, i8, i8, i8, i8, i8, i8, i8, i8, i8, i8, i8, i8, i16, i16, i16, i16, i16, i8 }
%struct.OneTimeAuth = type { ptr, i8 }

@.str.13 = private unnamed_addr constant [11 x i8] c"FFDHE_2048\00", align 1
@.str.14 = private unnamed_addr constant [11 x i8] c"FFDHE_3072\00", align 1
@.str.15 = private unnamed_addr constant [11 x i8] c"FFDHE_4096\00", align 1
@.str.16 = private unnamed_addr constant [11 x i8] c"FFDHE_6144\00", align 1
@.str.17 = private unnamed_addr constant [11 x i8] c"FFDHE_8192\00", align 1

; Function Attrs: nounwind uwtable
define internal ptr @wolfssl_ffdhe_name(i16 noundef zeroext %0) #0 {
  %2 = alloca i16, align 2
  %3 = alloca ptr, align 8
  store i16 %0, ptr %2, align 2, !tbaa !94
  call void @llvm.lifetime.start.p0(i64 8, ptr %3) #9
  store ptr null, ptr %3, align 8, !tbaa !21
  %4 = load i16, ptr %2, align 2, !tbaa !94
  %5 = zext i16 %4 to i32
  switch i32 %5, label %11 [
    i32 256, label %6
    i32 257, label %7
    i32 258, label %8
    i32 259, label %9
    i32 260, label %10
  ]

6:                                                ; preds = %1
  store ptr @.str.13, ptr %3, align 8, !tbaa !21
  br label %12

7:                                                ; preds = %1
  store ptr @.str.14, ptr %3, align 8, !tbaa !21
  br label %12

8:                                                ; preds = %1
  store ptr @.str.15, ptr %3, align 8, !tbaa !21
  br label %12

9:                                                ; preds = %1
  store ptr @.str.16, ptr %3, align 8, !tbaa !21
  br label %12

10:                                               ; preds = %1
  store ptr @.str.17, ptr %3, align 8, !tbaa !21
  br label %12

11:                                               ; preds = %1
  br label %12

12:                                               ; preds = %11, %10, %9, %8, %7, %6
  %13 = load ptr, ptr %3, align 8, !tbaa !21
  call void @llvm.lifetime.end.p0(i64 8, ptr %3) #9
  ret ptr %13
}

; Function Attrs: nounwind uwtable
define ptr @wolfSSL_get_curve_name(ptr noundef %0) #0 {
  %2 = alloca ptr, align 8
  %3 = alloca ptr, align 8
  %4 = alloca ptr, align 8
  %5 = alloca i32, align 4
  store ptr %0, ptr %3, align 8, !tbaa !61
  call void @llvm.lifetime.start.p0(i64 8, ptr %4) #9
  store ptr null, ptr %4, align 8, !tbaa !21
  br label %6

6:                                                ; preds = %1
  br label %7

7:                                                ; preds = %6
  br label %8

8:                                                ; preds = %7
  %9 = load ptr, ptr %3, align 8, !tbaa !61
  %10 = icmp eq ptr %9, null
  br i1 %10, label %11, label %12

11:                                               ; preds = %8
  store ptr null, ptr %2, align 8
  store i32 1, ptr %5, align 4
  br label %39

12:                                               ; preds = %8
  %13 = load ptr, ptr %3, align 8, !tbaa !61
  %14 = getelementptr inbounds nuw %struct.WOLFSSL, ptr %13, i32 0, i32 53
  %15 = load i16, ptr %14, align 2, !tbaa !284
  %16 = zext i16 %15 to i32
  %17 = icmp ne i32 %16, 0
  br i1 %17, label %18, label %23

18:                                               ; preds = %12
  %19 = load ptr, ptr %3, align 8, !tbaa !61
  %20 = getelementptr inbounds nuw %struct.WOLFSSL, ptr %19, i32 0, i32 53
  %21 = load i16, ptr %20, align 2, !tbaa !284
  %22 = call ptr @wolfssl_ffdhe_name(i16 noundef zeroext %21)
  store ptr %22, ptr %4, align 8, !tbaa !21
  br label %23

23:                                               ; preds = %18, %12
  %24 = load ptr, ptr %3, align 8, !tbaa !61
  %25 = getelementptr inbounds nuw %struct.WOLFSSL, ptr %24, i32 0, i32 61
  %26 = load i32, ptr %25, align 16, !tbaa !285
  %27 = icmp ne i32 %26, 0
  br i1 %27, label %28, label %37

28:                                               ; preds = %23
  %29 = load ptr, ptr %4, align 8, !tbaa !21
  %30 = icmp eq ptr %29, null
  br i1 %30, label %31, label %37

31:                                               ; preds = %28
  %32 = load ptr, ptr %3, align 8, !tbaa !61
  %33 = getelementptr inbounds nuw %struct.WOLFSSL, ptr %32, i32 0, i32 61
  %34 = load i32, ptr %33, align 16, !tbaa !285
  %35 = call i32 @wc_ecc_get_oid(i32 noundef %34, ptr noundef null, ptr noundef null)
  %36 = call ptr @wc_ecc_get_name(i32 noundef %35)
  store ptr %36, ptr %4, align 8, !tbaa !21
  br label %37

37:                                               ; preds = %31, %28, %23
  %38 = load ptr, ptr %4, align 8, !tbaa !21
  store ptr %38, ptr %2, align 8
  store i32 1, ptr %5, align 4
  br label %39

39:                                               ; preds = %37, %11
  call void @llvm.lifetime.end.p0(i64 8, ptr %4) #9
  %40 = load ptr, ptr %2, align 8
  ret ptr %40
}