; Function Attrs: nounwind uwtable
define ptr @wolfSSL_get_curve_name(ptr noundef readonly captures(address_is_null) %0) local_unnamed_addr #0 {
  %2 = icmp eq ptr %0, null
  br i1 %2, label %wolfssl_ffdhe_name.exit.thread, label %3

3:                                                ; preds = %1
  %4 = getelementptr inbounds nuw i8, ptr %0, i64 1082
  %5 = load i16, ptr %4, align 2, !tbaa !254
  %switch.tableidx = add i16 %5, -256
  %6 = icmp ult i16 %switch.tableidx, 5
  br i1 %6, label %switch.lookup, label %wolfssl_ffdhe_name.exit

wolfssl_ffdhe_name.exit:                          ; preds = %3
  %7 = getelementptr inbounds nuw i8, ptr %0, i64 1152
  %8 = load i32, ptr %7, align 16, !tbaa !255
  %.not = icmp eq i32 %8, 0
  br i1 %.not, label %wolfssl_ffdhe_name.exit.thread, label %9

9:                                                ; preds = %wolfssl_ffdhe_name.exit
  %10 = tail call i32 @wc_ecc_get_oid(i32 noundef %8, ptr noundef null, ptr noundef null) #22
  %11 = tail call ptr @wc_ecc_get_name(i32 noundef %10) #22
  br label %wolfssl_ffdhe_name.exit.thread

switch.lookup:                                    ; preds = %3
  %12 = zext nneg i16 %switch.tableidx to i64
  %switch.gep = getelementptr inbounds nuw [5 x ptr], ptr @switch.table.wolfSSL_get_curve_name, i64 0, i64 %12
  %switch.load = load ptr, ptr %switch.gep, align 8
  br label %wolfssl_ffdhe_name.exit.thread

wolfssl_ffdhe_name.exit.thread:                   ; preds = %switch.lookup, %wolfssl_ffdhe_name.exit, %9, %1
  %.09 = phi ptr [ null, %1 ], [ %11, %9 ], [ null, %wolfssl_ffdhe_name.exit ], [ %switch.load, %switch.lookup ]
  ret ptr %.09
}